; Function Attrs: mustprogress nofree norecurse nosync nounwind willreturn memory(argmem: write) uwtable
define void @ff_opus_rc_enc_init(ptr noundef initializes((56, 68), (1368, 1376)) %0) local_unnamed_addr #5 {
  %2 = getelementptr inbounds nuw i8, ptr %0, i64 60
  store i32 0, ptr %2, align 4, !tbaa !15
  %3 = getelementptr inbounds nuw i8, ptr %0, i64 56
  store i32 -2147483648, ptr %3, align 8, !tbaa !8
  %4 = getelementptr inbounds nuw i8, ptr %0, i64 64
  store i32 33, ptr %4, align 8, !tbaa !21
  %5 = getelementptr inbounds nuw i8, ptr %0, i64 1372
  store i32 -1, ptr %5, align 4, !tbaa !25
  %6 = getelementptr inbounds nuw i8, ptr %0, i64 1368
  store i32 0, ptr %6, align 8, !tbaa !24
  %7 = getelementptr inbounds nuw i8, ptr %0, i64 68
  %8 = getelementptr inbounds nuw i8, ptr %0, i64 1360
  store ptr %7, ptr %8, align 8, !tbaa !26
  %9 = getelementptr inbounds nuw i8, ptr %0, i64 1351
  %10 = getelementptr inbounds nuw i8, ptr %0, i64 32
  store ptr %9, ptr %10, align 8, !tbaa !28
  %11 = getelementptr inbounds nuw i8, ptr %0, i64 40
  store i32 0, ptr %11, align 8, !tbaa !30
  %12 = getelementptr inbounds nuw i8, ptr %0, i64 44
  store i32 0, ptr %12, align 4, !tbaa !31
  %13 = getelementptr inbounds nuw i8, ptr %0, i64 48
  store i32 0, ptr %13, align 8, !tbaa !32
  ret void
}